target datalayout = "e-m:e-p270:32:32-p271:32:32-p272:64:64-i64:64-i128:128-f80:128-n8:16:32:64-S128"
target triple = "x86_64-unknown-linux-gnu"

%struct.UText = type { i32, i32, i32, i32, i64, i32, i32, i64, i32, i32, ptr, ptr, ptr, ptr, ptr, ptr, ptr, ptr, i64, i32, i32, i64, i32, i32 }
%struct.UTextFuncs = type { i32, i32, i32, i32, ptr, ptr, ptr, ptr, ptr, ptr, ptr, ptr, ptr, ptr, ptr, ptr }

; Function Attrs: mustprogress uwtable
define i64 @utext_getNativeIndex_75(ptr noundef %ut) #0 {
entry:
  %retval = alloca i64, align 8
  %ut.addr = alloca ptr, align 8
  store ptr %ut, ptr %ut.addr, align 8
  %0 = load ptr, ptr %ut.addr, align 8
  %chunkOffset = getelementptr inbounds %struct.UText, ptr %0, i32 0, i32 8
  %1 = load i32, ptr %chunkOffset, align 8
  %2 = load ptr, ptr %ut.addr, align 8
  %nativeIndexingLimit = getelementptr inbounds %struct.UText, ptr %2, i32 0, i32 6
  %3 = load i32, ptr %nativeIndexingLimit, align 4
  %cmp = icmp sle i32 %1, %3
  br i1 %cmp, label %if.then, label %if.else

if.then:                                          ; preds = %entry
  %4 = load ptr, ptr %ut.addr, align 8
  %chunkNativeStart = getelementptr inbounds %struct.UText, ptr %4, i32 0, i32 7
  %5 = load i64, ptr %chunkNativeStart, align 8
  %6 = load ptr, ptr %ut.addr, align 8
  %chunkOffset1 = getelementptr inbounds %struct.UText, ptr %6, i32 0, i32 8
  %7 = load i32, ptr %chunkOffset1, align 8
  %conv = sext i32 %7 to i64
  %add = add nsw i64 %5, %conv
  store i64 %add, ptr %retval, align 8
  br label %return

if.else:                                          ; preds = %entry
  %8 = load ptr, ptr %ut.addr, align 8
  %pFuncs = getelementptr inbounds %struct.UText, ptr %8, i32 0, i32 11
  %9 = load ptr, ptr %pFuncs, align 8
  %mapOffsetToNative = getelementptr inbounds %struct.UTextFuncs, ptr %9, i32 0, i32 10
  %10 = load ptr, ptr %mapOffsetToNative, align 8
  %11 = load ptr, ptr %ut.addr, align 8
  %call = call noundef i64 %10(ptr noundef %11)
  store i64 %call, ptr %retval, align 8
  br label %return

return:                                           ; preds = %if.else, %if.then
  %12 = load i64, ptr %retval, align 8
  ret i64 %12
}