; Function Attrs: mustprogress uwtable
define i64 @utext_getNativeIndex_75(ptr noundef %ut) local_unnamed_addr #0 {
entry:
  %chunkOffset = getelementptr inbounds i8, ptr %ut, i64 40
  %0 = load i32, ptr %chunkOffset, align 8
  %nativeIndexingLimit = getelementptr inbounds i8, ptr %ut, i64 28
  %1 = load i32, ptr %nativeIndexingLimit, align 4
  %cmp.not = icmp sgt i32 %0, %1
  br i1 %cmp.not, label %if.else, label %if.then

if.then:                                          ; preds = %entry
  %chunkNativeStart = getelementptr inbounds i8, ptr %ut, i64 32
  %2 = load i64, ptr %chunkNativeStart, align 8
  %conv = sext i32 %0 to i64
  %add = add nsw i64 %2, %conv
  br label %return

if.else:                                          ; preds = %entry
  %pFuncs = getelementptr inbounds i8, ptr %ut, i64 56
  %3 = load ptr, ptr %pFuncs, align 8
  %mapOffsetToNative = getelementptr inbounds i8, ptr %3, i64 64
  %4 = load ptr, ptr %mapOffsetToNative, align 8
  %call = tail call noundef i64 %4(ptr noundef nonnull %ut)
  br label %return

return:                                           ; preds = %if.else, %if.then
  %retval.0 = phi i64 [ %add, %if.then ], [ %call, %if.else ]
  ret i64 %retval.0
}